target datalayout = "e-m:e-p270:32:32-p271:32:32-p272:64:64-i64:64-i128:128-f80:128-n8:16:32:64-S128"
target triple = "x86_64-pc-linux-gnu"

%"struct.std::_Rb_tree_header" = type { %"struct.std::_Rb_tree_node_base", i64 }
%"struct.std::_Rb_tree_node_base" = type { i32, ptr, ptr, ptr }
%"class.vcg::Matrix44" = type { %"struct.std::array" }
%"struct.std::array" = type { [16 x float] }
%class.QString = type { ptr }
%"class.vcg::Color4" = type { %"class.vcg::Point4" }
%"class.vcg::Point4" = type { [4 x i8] }
%class.GLArea = type <{ %class.QGLWidget, i32, [4 x i8], ptr, %"class.vcg::Trackball", %"class.vcg::Trackball", %class.GLAreaSetting, %class.QMap, %class.QList, i8, i8, [6 x i8], %class.QString, %class.QMap.33, i8, i8, i8, i8, i8, i8, i8, i8, %class.QString, %class.QString, i8, [3 x i8], %"class.vcg::Point2", [4 x i8], ptr, ptr, ptr, %class.QFont, ptr, ptr, ptr, %class.QMap.34, ptr, float, float, float, float, float, [4 x i8], %class.SnapshotSetting, i32, [4 x i8], %class.QMap.35, %class.QMap.35, float, float, %class.QImage, i8, [3 x i8], i32, i32, i32, i32, i32, i8, [3 x i8], i32, i32, i8, [3 x i8], float, i32, %class.QString, i32, [4 x i8] }>
%class.QGLWidget = type { %class.QWidget }
%class.QWidget = type { %class.QObject, %class.QPaintDevice, ptr }
%class.QObject = type { ptr, %class.QScopedPointer }
%class.QScopedPointer = type { ptr }
%class.QPaintDevice = type { ptr, i16, ptr }
%"class.vcg::Trackball" = type <{ %"class.vcg::Transform", %"class.vcg::View", i32, ptr, ptr, ptr, %"class.std::map.17", %"class.vcg::Similarityf", %"class.vcg::Similarityf", %"class.vcg::Similarityf", %"class.vcg::Point3", [4 x i8], %"class.std::vector.25", i8, [3 x i8], i32, i32, %"class.vcg::Quaternion", i8, i8, [2 x i8], %"class.std::__cxx11::list", i32, i8, [3 x i8] }>
%"class.vcg::Transform" = type { %"class.vcg::Similarityf", %"class.vcg::Point3", float }
%"class.vcg::View" = type <{ %"class.vcg::Matrix44", %"class.vcg::Matrix44", %"class.vcg::Matrix44", %"class.vcg::Matrix44", [4 x i32], i8, [3 x i8] }>
%"class.std::map.17" = type { %"class.std::_Rb_tree.18" }
%"class.std::_Rb_tree.18" = type { %"struct.std::_Rb_tree<int, std::pair<const int, vcg::TrackMode *>, std::_Select1st<std::pair<const int, vcg::TrackMode *>>, std::less<int>>::_Rb_tree_impl" }
%"struct.std::_Rb_tree<int, std::pair<const int, vcg::TrackMode *>, std::_Select1st<std::pair<const int, vcg::TrackMode *>>, std::less<int>>::_Rb_tree_impl" = type { %"struct.std::_Rb_tree_key_compare.22", %"struct.std::_Rb_tree_header" }
%"struct.std::_Rb_tree_key_compare.22" = type { %"struct.std::less.23" }
%"struct.std::less.23" = type { i8 }
%"class.vcg::Similarityf" = type { %"class.vcg::Similarity" }
%"class.vcg::Similarity" = type { %"class.vcg::Quaternion", %"class.vcg::Point3", float }
%"class.vcg::Point3" = type { [3 x float] }
%"class.std::vector.25" = type { %"struct.std::_Vector_base.26" }
%"struct.std::_Vector_base.26" = type { %"struct.std::_Vector_base<vcg::Point3<float>, std::allocator<vcg::Point3<float>>>::_Vector_impl" }
%"struct.std::_Vector_base<vcg::Point3<float>, std::allocator<vcg::Point3<float>>>::_Vector_impl" = type { %"struct.std::_Vector_base<vcg::Point3<float>, std::allocator<vcg::Point3<float>>>::_Vector_impl_data" }
%"struct.std::_Vector_base<vcg::Point3<float>, std::allocator<vcg::Point3<float>>>::_Vector_impl_data" = type { ptr, ptr, ptr }
%"class.vcg::Quaternion" = type { %"class.vcg::Point4.16" }
%"class.vcg::Point4.16" = type { [4 x float] }
%"class.std::__cxx11::list" = type { %"class.std::__cxx11::_List_base" }
%"class.std::__cxx11::_List_base" = type { %"struct.std::__cxx11::_List_base<vcg::Transform, std::allocator<vcg::Transform>>::_List_impl" }
%"struct.std::__cxx11::_List_base<vcg::Transform, std::allocator<vcg::Transform>>::_List_impl" = type { %"struct.std::__detail::_List_node_header" }
%"struct.std::__detail::_List_node_header" = type { %"struct.std::__detail::_List_node_base", i64 }
%"struct.std::__detail::_List_node_base" = type { ptr, ptr }
%class.GLAreaSetting = type { %"class.vcg::Color4", %"class.vcg::Color4", %"class.vcg::Color4", %"class.vcg::Color4", %"class.vcg::Color4", %"class.vcg::Color4", %"class.vcg::Color4", %"class.vcg::Color4", %"class.vcg::Color4", i32, i32, i32, i8, i8, float, i8, i8, i32, ptr }
%class.QMap = type { ptr }
%class.QList = type { %union.anon }
%union.anon = type { %struct.QListData }
%struct.QListData = type { ptr }
%class.QMap.33 = type { ptr }
%"class.vcg::Point2" = type { [2 x i32] }
%class.QFont = type <{ %class.QExplicitlySharedDataPointer, i32, [4 x i8] }>
%class.QExplicitlySharedDataPointer = type { ptr }
%class.QMap.34 = type { ptr }
%class.SnapshotSetting = type { %class.QString, %class.QString, i32, i32, i32, i8, i8, i8, i8 }
%class.QMap.35 = type { ptr }
%class.QImage = type { %class.QPaintDevice, ptr }
%class.MultiViewer_Container = type { %class.Splitter, %class.MeshDocument, ptr, i32, ptr, %class.QList.59 }
%class.Splitter = type { %class.QSplitter }
%class.QSplitter = type { %class.QFrame }
%class.QFrame = type { %class.QWidget }
%class.MeshDocument = type { %class.QObject, %class.GLLogStream, %class.FilterScript, %"class.std::__cxx11::list.48", %"class.std::__cxx11::list.53", i32, i32, %class.QString, %class.QString, %class.MeshDocumentStateData, i8, ptr, ptr }
%class.GLLogStream = type { %class.QObject, i32, %class.QList.41, %class.QMultiMap }
%class.QList.41 = type { %union.anon.43 }
%union.anon.43 = type { %struct.QListData }
%class.QMultiMap = type { %class.QMap.44 }
%class.QMap.44 = type { ptr }
%class.FilterScript = type { %class.QObject, %class.QList.45 }
%class.QList.45 = type { %union.anon.47 }
%union.anon.47 = type { %struct.QListData }
%"class.std::__cxx11::list.48" = type { %"class.std::__cxx11::_List_base.49" }
%"class.std::__cxx11::_List_base.49" = type { %"struct.std::__cxx11::_List_base<MeshModel, std::allocator<MeshModel>>::_List_impl" }
%"struct.std::__cxx11::_List_base<MeshModel, std::allocator<MeshModel>>::_List_impl" = type { %"struct.std::__detail::_List_node_header" }
%"class.std::__cxx11::list.53" = type { %"class.std::__cxx11::_List_base.54" }
%"class.std::__cxx11::_List_base.54" = type { %"struct.std::__cxx11::_List_base<RasterModel, std::allocator<RasterModel>>::_List_impl" }
%"struct.std::__cxx11::_List_base<RasterModel, std::allocator<RasterModel>>::_List_impl" = type { %"struct.std::__detail::_List_node_header" }
%class.MeshDocumentStateData = type { %class.QReadWriteLock, %class.QMap.58 }
%class.QReadWriteLock = type { %class.QAtomicPointer }
%class.QAtomicPointer = type { %class.QBasicAtomicPointer }
%class.QBasicAtomicPointer = type { %"struct.std::atomic" }
%"struct.std::atomic" = type { %"struct.std::__atomic_base" }
%"struct.std::__atomic_base" = type { ptr }
%class.QMap.58 = type { ptr }
%class.QList.59 = type { %union.anon.61 }
%union.anon.61 = type { %struct.QListData }

; Function Attrs: mustprogress nounwind uwtable
define linkonce_odr noundef ptr @_ZN6GLArea3mvcEv(ptr noundef nonnull align 8 dereferenceable(1676) %0) #4 comdat align 2 {
  %2 = alloca ptr, align 8
  store ptr %0, ptr %2, align 8
  %3 = load ptr, ptr %2, align 8
  %4 = getelementptr inbounds %class.GLArea, ptr %3, i32 0, i32 3
  %5 = load ptr, ptr %4, align 8
  ret ptr %5
}

; Function Attrs: mustprogress nounwind uwtable
define linkonce_odr noundef ptr @_ZN21MultiViewer_Container17sharedDataContextEv(ptr noundef nonnull align 8 dereferenceable(272) %0) #4 comdat align 2 {
  %2 = alloca ptr, align 8
  store ptr %0, ptr %2, align 8
  %3 = load ptr, ptr %2, align 8
  %4 = getelementptr inbounds %class.MultiViewer_Container, ptr %3, i32 0, i32 2
  %5 = load ptr, ptr %4, align 8
  ret ptr %5
}

; Function Attrs: mustprogress uwtable
define linkonce_odr noundef ptr @_ZN6GLArea2mdEv(ptr noundef nonnull align 8 dereferenceable(1676) %0) #5 comdat align 2 {
  %2 = alloca ptr, align 8
  %3 = alloca ptr, align 8
  store ptr %0, ptr %3, align 8
  %4 = load ptr, ptr %3, align 8
  %5 = call noundef ptr @_ZN6GLArea3mvcEv(ptr noundef nonnull align 8 dereferenceable(1676) %4)
  %6 = icmp eq ptr %5, null
  br i1 %6, label %7, label %8

7:                                                ; preds = %1
  store ptr null, ptr %2, align 8
  br label %11

8:                                                ; preds = %1
  %9 = call noundef ptr @_ZN6GLArea3mvcEv(ptr noundef nonnull align 8 dereferenceable(1676) %4)
  %10 = getelementptr inbounds %class.MultiViewer_Container, ptr %9, i32 0, i32 1
  store ptr %10, ptr %2, align 8
  br label %11

11:                                               ; preds = %8, %7
  %12 = load ptr, ptr %2, align 8
  ret ptr %12
}

; Function Attrs: mustprogress uwtable
define void @_ZN6GLArea23manageCurrentMeshChangeEv(ptr noundef nonnull align 8 dereferenceable(1676) %0) #5 align 2 {
  %2 = alloca ptr, align 8
  store ptr %0, ptr %2, align 8
  %3 = load ptr, ptr %2, align 8
  %4 = getelementptr inbounds %class.GLArea, ptr %3, i32 0, i32 32
  %5 = load ptr, ptr %4, align 8
  %6 = icmp ne ptr %5, null
  br i1 %6, label %7, label %30

7:                                                ; preds = %1
  %8 = getelementptr inbounds %class.GLArea, ptr %3, i32 0, i32 32
  %9 = load ptr, ptr %8, align 8
  %10 = load ptr, ptr %9, align 8
  %11 = getelementptr inbounds ptr, ptr %10, i64 7
  %12 = load ptr, ptr %11, align 8
  %13 = call noundef zeroext i1 %12(ptr noundef nonnull align 8 dereferenceable(16) %9)
  br i1 %13, label %14, label %15

14:                                               ; preds = %7
  br label %15

15:                                               ; preds = %14, %7
  %16 = getelementptr inbounds %class.GLArea, ptr %3, i32 0, i32 32
  %17 = load ptr, ptr %16, align 8
  %18 = call noundef ptr @_ZN6GLArea2mdEv(ptr noundef nonnull align 8 dereferenceable(1676) %3)
  %19 = getelementptr inbounds %class.GLArea, ptr %3, i32 0, i32 36
  %20 = load ptr, ptr %19, align 8
  %21 = getelementptr inbounds %class.GLArea, ptr %3, i32 0, i32 3
  %22 = load ptr, ptr %21, align 8
  %23 = call noundef ptr @_ZN21MultiViewer_Container17sharedDataContextEv(ptr noundef nonnull align 8 dereferenceable(272) %22)
  %24 = load ptr, ptr %17, align 8
  %25 = getelementptr inbounds ptr, ptr %24, i64 8
  %26 = load ptr, ptr %25, align 8
  call void %26(ptr noundef nonnull align 8 dereferenceable(16) %17, ptr noundef nonnull align 8 dereferenceable(192) %18, ptr noundef nonnull align 8 dereferenceable(1288) %20, ptr noundef %3, ptr noundef %23)
  %27 = call noundef ptr @_ZN6GLArea2mdEv(ptr noundef nonnull align 8 dereferenceable(1676) %3)
  %28 = call noundef ptr @_ZN12MeshDocument2mmEv(ptr noundef nonnull align 8 dereferenceable(192) %27)
  %29 = getelementptr inbounds %class.GLArea, ptr %3, i32 0, i32 36
  store ptr %28, ptr %29, align 8
  br label %30

30:                                               ; preds = %15, %1
  call void @_ZN6GLArea21updateMainWindowMenusEv(ptr noundef nonnull align 8 dereferenceable(1676) %3)
  ret void
}