; Function Attrs: mustprogress uwtable
define void @_ZN6GLArea23manageCurrentMeshChangeEv(ptr noundef nonnull align 8 dereferenceable(1676) %0) local_unnamed_addr #9 align 2 {
  %2 = getelementptr inbounds i8, ptr %0, i64 1456
  %3 = load ptr, ptr %2, align 8
  %.not = icmp eq ptr %3, null
  br i1 %.not, label %25, label %4

4:                                                ; preds = %1
  %5 = load ptr, ptr %3, align 8
  %6 = getelementptr inbounds i8, ptr %5, i64 56
  %7 = load ptr, ptr %6, align 8
  %8 = tail call noundef zeroext i1 %7(ptr noundef nonnull align 8 dereferenceable(16) %3)
  %9 = load ptr, ptr %2, align 8
  %10 = getelementptr inbounds i8, ptr %0, i64 56
  %11 = load ptr, ptr %10, align 8
  %12 = icmp eq ptr %11, null
  %13 = getelementptr inbounds i8, ptr %11, i64 48
  %spec.select.i = select i1 %12, ptr null, ptr %13
  %14 = getelementptr inbounds i8, ptr %0, i64 1488
  %15 = load ptr, ptr %14, align 8
  %16 = getelementptr inbounds i8, ptr %11, i64 240
  %17 = load ptr, ptr %16, align 8
  %18 = load ptr, ptr %9, align 8
  %19 = getelementptr inbounds i8, ptr %18, i64 64
  %20 = load ptr, ptr %19, align 8
  tail call void %20(ptr noundef nonnull align 8 dereferenceable(16) %9, ptr noundef nonnull align 8 dereferenceable(192) %spec.select.i, ptr noundef nonnull align 8 dereferenceable(1288) %15, ptr noundef nonnull %0, ptr noundef %17)
  %21 = load ptr, ptr %10, align 8
  %22 = icmp eq ptr %21, null
  %23 = getelementptr inbounds i8, ptr %21, i64 48
  %spec.select.i1 = select i1 %22, ptr null, ptr %23
  %24 = tail call noundef ptr @_ZN12MeshDocument2mmEv(ptr noundef nonnull align 8 dereferenceable(192) %spec.select.i1)
  store ptr %24, ptr %14, align 8
  br label %25

25:                                               ; preds = %4, %1
  tail call void @_ZN6GLArea21updateMainWindowMenusEv(ptr noundef nonnull align 8 dereferenceable(1676) %0)
  ret void
}